(dp0
S'isShellCmd'
p1
I00
sS'cmd'
p2
(lp3
S'/usr/local/libexec/GetChromDepth'
p4
aS'--ref'
p5
aS'/home/bioinfo/snv/ref/human_g1k_v37.fasta'
p6
aS'--align-file'
p7
aS'/home/bioinfo/snv/alignment/normal/normal.sorted.dup.recal.bam'
p8
aS'--output'
p9
aS'/home/bioinfo/snv/variant_calling/strelka/workspace/chromDepth.tsv.tmpdir/chromDepth.tsv.000.txt.tmpdir/chromDepth.tsv.000.txt_003_4'
p10
aS'--chrom'
p11
aS'4'
p12
asS'errFile'
p13
S'/home/bioinfo/snv/variant_calling/strelka/workspace/pyflow.data/logs/pyflow_tasks_stderr_log.txt'
p14
sS'outFile'
p15
S'/home/bioinfo/snv/variant_calling/strelka/workspace/pyflow.data/logs/pyflow_tasks_stdout_log.txt'
p16
sS'env'
p17
NsS'nCores'
p18
I1
sS'cwd'
p19
S''
p20
s.