(dp0
S'isShellCmd'
p1
I01
sS'cmd'
p2
S'"/usr/local/libexec/bgzip" "/home/bioinfo/snv/variant_calling/strelka/workspace/genomeSegment.tmpdir/somatic.snvs.unfiltered.chromId_003_4_0003.vcf" && "/usr/local/libexec/bgzip" "/home/bioinfo/snv/variant_calling/strelka/workspace/genomeSegment.tmpdir/somatic.indels.unfiltered.chromId_003_4_0003.vcf"'
p3
sS'errFile'
p4
S'/home/bioinfo/snv/variant_calling/strelka/workspace/pyflow.data/logs/pyflow_tasks_stderr_log.txt'
p5
sS'outFile'
p6
S'/home/bioinfo/snv/variant_calling/strelka/workspace/pyflow.data/logs/pyflow_tasks_stdout_log.txt'
p7
sS'env'
p8
NsS'nCores'
p9
I1
sS'cwd'
p10
S''
p11
s.