(dp0
S'isShellCmd'
p1
I00
sS'cmd'
p2
(lp3
S'/usr/local/libexec/MergeRunStats'
p4
aS'--stats-file'
p5
aS'/home/bioinfo/snv/variant_calling/strelka/workspace/genomeSegment.tmpdir/runStats.chromId_003_4_0000.xml'
p6
ag5
aS'/home/bioinfo/snv/variant_calling/strelka/workspace/genomeSegment.tmpdir/runStats.chromId_003_4_0001.xml'
p7
ag5
aS'/home/bioinfo/snv/variant_calling/strelka/workspace/genomeSegment.tmpdir/runStats.chromId_003_4_0002.xml'
p8
ag5
aS'/home/bioinfo/snv/variant_calling/strelka/workspace/genomeSegment.tmpdir/runStats.chromId_003_4_0003.xml'
p9
ag5
aS'/home/bioinfo/snv/variant_calling/strelka/workspace/genomeSegment.tmpdir/runStats.chromId_003_4_0004.xml'
p10
ag5
aS'/home/bioinfo/snv/variant_calling/strelka/workspace/genomeSegment.tmpdir/runStats.chromId_003_4_0005.xml'
p11
ag5
aS'/home/bioinfo/snv/variant_calling/strelka/workspace/genomeSegment.tmpdir/runStats.chromId_003_4_0006.xml'
p12
ag5
aS'/home/bioinfo/snv/variant_calling/strelka/workspace/genomeSegment.tmpdir/runStats.chromId_003_4_0007.xml'
p13
ag5
aS'/home/bioinfo/snv/variant_calling/strelka/workspace/genomeSegment.tmpdir/runStats.chromId_003_4_0008.xml'
p14
ag5
aS'/home/bioinfo/snv/variant_calling/strelka/workspace/genomeSegment.tmpdir/runStats.chromId_003_4_0009.xml'
p15
ag5
aS'/home/bioinfo/snv/variant_calling/strelka/workspace/genomeSegment.tmpdir/runStats.chromId_003_4_0010.xml'
p16
ag5
aS'/home/bioinfo/snv/variant_calling/strelka/workspace/genomeSegment.tmpdir/runStats.chromId_003_4_0011.xml'
p17
ag5
aS'/home/bioinfo/snv/variant_calling/strelka/workspace/genomeSegment.tmpdir/runStats.chromId_003_4_0012.xml'
p18
ag5
aS'/home/bioinfo/snv/variant_calling/strelka/workspace/genomeSegment.tmpdir/runStats.chromId_003_4_0013.xml'
p19
ag5
aS'/home/bioinfo/snv/variant_calling/strelka/workspace/genomeSegment.tmpdir/runStats.chromId_003_4_0014.xml'
p20
ag5
aS'/home/bioinfo/snv/variant_calling/strelka/workspace/genomeSegment.tmpdir/runStats.chromId_003_4_0015.xml'
p21
aS'--output-file'
p22
aS'/home/bioinfo/snv/variant_calling/strelka/results/stats/runStats.xml'
p23
aS'--report-file'
p24
aS'/home/bioinfo/snv/variant_calling/strelka/results/stats/runStats.tsv'
p25
asS'errFile'
p26
S'/home/bioinfo/snv/variant_calling/strelka/workspace/pyflow.data/logs/pyflow_tasks_stderr_log.txt'
p27
sS'outFile'
p28
S'/home/bioinfo/snv/variant_calling/strelka/workspace/pyflow.data/logs/pyflow_tasks_stdout_log.txt'
p29
sS'env'
p30
NsS'nCores'
p31
I1
sS'cwd'
p32
S''
p33
s.