(dp0
S'isShellCmd'
p1
I00
sS'cmd'
p2
(lp3
S'/usr/local/libexec/cat.py'
p4
aS'--output'
p5
aS'/home/bioinfo/snv/variant_calling/strelka/workspace/chromDepth.tsv.tmpdir/chromDepth.tsv.000.txt'
p6
aS'/home/bioinfo/snv/variant_calling/strelka/workspace/chromDepth.tsv.tmpdir/chromDepth.tsv.000.txt.tmpdir/chromDepth.tsv.000.txt_003_4'
p7
asS'errFile'
p8
S'/home/bioinfo/snv/variant_calling/strelka/workspace/pyflow.data/logs/pyflow_tasks_stderr_log.txt'
p9
sS'outFile'
p10
S'/home/bioinfo/snv/variant_calling/strelka/workspace/pyflow.data/logs/pyflow_tasks_stdout_log.txt'
p11
sS'env'
p12
NsS'nCores'
p13
I1
sS'cwd'
p14
S''
p15
s.