(dp0
S'isShellCmd'
p1
I00
sS'cmd'
p2
(lp3
S'/usr/local/libexec/bgzf_cat'
p4
aS'-o'
p5
aS'/home/bioinfo/snv/variant_calling/strelka/results/variants/somatic.indels.vcf.gz'
p6
aS'/home/bioinfo/snv/variant_calling/strelka/workspace/genomeSegment.tmpdir/somatic.indels.unfiltered.chromId_003_4_0000.vcf.gz'
p7
aS'/home/bioinfo/snv/variant_calling/strelka/workspace/genomeSegment.tmpdir/somatic.indels.unfiltered.chromId_003_4_0001.vcf.gz'
p8
aS'/home/bioinfo/snv/variant_calling/strelka/workspace/genomeSegment.tmpdir/somatic.indels.unfiltered.chromId_003_4_0002.vcf.gz'
p9
aS'/home/bioinfo/snv/variant_calling/strelka/workspace/genomeSegment.tmpdir/somatic.indels.unfiltered.chromId_003_4_0003.vcf.gz'
p10
aS'/home/bioinfo/snv/variant_calling/strelka/workspace/genomeSegment.tmpdir/somatic.indels.unfiltered.chromId_003_4_0004.vcf.gz'
p11
aS'/home/bioinfo/snv/variant_calling/strelka/workspace/genomeSegment.tmpdir/somatic.indels.unfiltered.chromId_003_4_0005.vcf.gz'
p12
aS'/home/bioinfo/snv/variant_calling/strelka/workspace/genomeSegment.tmpdir/somatic.indels.unfiltered.chromId_003_4_0006.vcf.gz'
p13
aS'/home/bioinfo/snv/variant_calling/strelka/workspace/genomeSegment.tmpdir/somatic.indels.unfiltered.chromId_003_4_0007.vcf.gz'
p14
aS'/home/bioinfo/snv/variant_calling/strelka/workspace/genomeSegment.tmpdir/somatic.indels.unfiltered.chromId_003_4_0008.vcf.gz'
p15
aS'/home/bioinfo/snv/variant_calling/strelka/workspace/genomeSegment.tmpdir/somatic.indels.unfiltered.chromId_003_4_0009.vcf.gz'
p16
aS'/home/bioinfo/snv/variant_calling/strelka/workspace/genomeSegment.tmpdir/somatic.indels.unfiltered.chromId_003_4_0010.vcf.gz'
p17
aS'/home/bioinfo/snv/variant_calling/strelka/workspace/genomeSegment.tmpdir/somatic.indels.unfiltered.chromId_003_4_0011.vcf.gz'
p18
aS'/home/bioinfo/snv/variant_calling/strelka/workspace/genomeSegment.tmpdir/somatic.indels.unfiltered.chromId_003_4_0012.vcf.gz'
p19
aS'/home/bioinfo/snv/variant_calling/strelka/workspace/genomeSegment.tmpdir/somatic.indels.unfiltered.chromId_003_4_0013.vcf.gz'
p20
aS'/home/bioinfo/snv/variant_calling/strelka/workspace/genomeSegment.tmpdir/somatic.indels.unfiltered.chromId_003_4_0014.vcf.gz'
p21
aS'/home/bioinfo/snv/variant_calling/strelka/workspace/genomeSegment.tmpdir/somatic.indels.unfiltered.chromId_003_4_0015.vcf.gz'
p22
asS'errFile'
p23
S'/home/bioinfo/snv/variant_calling/strelka/workspace/pyflow.data/logs/pyflow_tasks_stderr_log.txt'
p24
sS'outFile'
p25
S'/home/bioinfo/snv/variant_calling/strelka/workspace/pyflow.data/logs/pyflow_tasks_stdout_log.txt'
p26
sS'env'
p27
NsS'nCores'
p28
I1
sS'cwd'
p29
S''
p30
s.